target datalayout = "e-m:e-p270:32:32-p271:32:32-p272:64:64-i64:64-i128:128-f80:128-n8:16:32:64-S128"
target triple = "x86_64-pc-linux-gnu"

%struct.H5S_extent_t = type { %struct.H5O_shared_t, i32, i32, i64, i32, ptr, ptr }
%struct.H5O_shared_t = type { i32, ptr, i32, %union.anon }
%union.anon = type { %struct.H5O_mesg_loc_t }
%struct.H5O_mesg_loc_t = type { i32, i64 }

@H5S_init_g = global i8 0, align 1
@H5_hsize_t_arr_free_list = global { i8, [3 x i8], i32, i64, ptr, i32, [4 x i8], i64, i64, ptr } { i8 0, [3 x i8] zeroinitializer, i32 0, i64 0, ptr @.str.2, i32 33, [4 x i8] zeroinitializer, i64 0, i64 8, ptr null }, align 8
@H5_libterm_g = external global i8, align 1
@.str.3 = private unnamed_addr constant [97 x i8] c"generated/home/dtcxzyw/WorkSpace/Projects/compilers/llvm-opt-benchmark/bench/hdf5/hdf5/src/H5S.c\00", align 1
@H5E_DATASPACE_g = external global i64, align 8
@H5E_CANTRELEASE_g = external global i64, align 8
@.str.17 = private unnamed_addr constant [35 x i8] c"unable to release dataspace extent\00", align 1
@H5E_CANTCOPY_g = external global i64, align 8
@__func__.H5S__extent_copy_real = private unnamed_addr constant [22 x i8] c"H5S__extent_copy_real\00", align 1
@.str.23 = private unnamed_addr constant [30 x i8] c"can't copy shared information\00", align 1

; Function Attrs: nounwind uwtable
define i32 @H5S__extent_release(ptr noundef %0) #0 {
  %2 = alloca ptr, align 8
  store ptr %0, ptr %2, align 8, !tbaa !29
  %3 = load i8, ptr @H5S_init_g, align 1, !tbaa !7, !range !9, !noundef !10
  %4 = trunc i8 %3 to i1
  br i1 %4, label %9, label %5

5:                                                ; preds = %1
  %6 = load i8, ptr @H5_libterm_g, align 1, !tbaa !7, !range !9, !noundef !10
  %7 = trunc i8 %6 to i1
  %8 = xor i1 %7, true
  br label %9

9:                                                ; preds = %5, %1
  %10 = phi i1 [ true, %1 ], [ %8, %5 ]
  %11 = xor i1 %10, true
  %12 = xor i1 %11, true
  %13 = zext i1 %12 to i32
  %14 = sext i32 %13 to i64
  %15 = call i64 @llvm.expect.i64(i64 %14, i64 1)
  %16 = icmp ne i64 %15, 0
  br i1 %16, label %17, label %52

17:                                               ; preds = %9
  %18 = load ptr, ptr %2, align 8, !tbaa !29
  %19 = getelementptr inbounds nuw %struct.H5S_extent_t, ptr %18, i32 0, i32 1
  %20 = load i32, ptr %19, align 8, !tbaa !31
  %21 = icmp eq i32 %20, 1
  br i1 %21, label %22, label %47

22:                                               ; preds = %17
  %23 = load ptr, ptr %2, align 8, !tbaa !29
  %24 = getelementptr inbounds nuw %struct.H5S_extent_t, ptr %23, i32 0, i32 5
  %25 = load ptr, ptr %24, align 8, !tbaa !32
  %26 = icmp ne ptr %25, null
  br i1 %26, label %27, label %34

27:                                               ; preds = %22
  %28 = load ptr, ptr %2, align 8, !tbaa !29
  %29 = getelementptr inbounds nuw %struct.H5S_extent_t, ptr %28, i32 0, i32 5
  %30 = load ptr, ptr %29, align 8, !tbaa !32
  %31 = call ptr @H5FL_arr_free(ptr noundef @H5_hsize_t_arr_free_list, ptr noundef %30)
  %32 = load ptr, ptr %2, align 8, !tbaa !29
  %33 = getelementptr inbounds nuw %struct.H5S_extent_t, ptr %32, i32 0, i32 5
  store ptr %31, ptr %33, align 8, !tbaa !32
  br label %34

34:                                               ; preds = %27, %22
  %35 = load ptr, ptr %2, align 8, !tbaa !29
  %36 = getelementptr inbounds nuw %struct.H5S_extent_t, ptr %35, i32 0, i32 6
  %37 = load ptr, ptr %36, align 8, !tbaa !33
  %38 = icmp ne ptr %37, null
  br i1 %38, label %39, label %46

39:                                               ; preds = %34
  %40 = load ptr, ptr %2, align 8, !tbaa !29
  %41 = getelementptr inbounds nuw %struct.H5S_extent_t, ptr %40, i32 0, i32 6
  %42 = load ptr, ptr %41, align 8, !tbaa !33
  %43 = call ptr @H5FL_arr_free(ptr noundef @H5_hsize_t_arr_free_list, ptr noundef %42)
  %44 = load ptr, ptr %2, align 8, !tbaa !29
  %45 = getelementptr inbounds nuw %struct.H5S_extent_t, ptr %44, i32 0, i32 6
  store ptr %43, ptr %45, align 8, !tbaa !33
  br label %46

46:                                               ; preds = %39, %34
  br label %47

47:                                               ; preds = %46, %17
  %48 = load ptr, ptr %2, align 8, !tbaa !29
  %49 = getelementptr inbounds nuw %struct.H5S_extent_t, ptr %48, i32 0, i32 4
  store i32 0, ptr %49, align 8, !tbaa !34
  %50 = load ptr, ptr %2, align 8, !tbaa !29
  %51 = getelementptr inbounds nuw %struct.H5S_extent_t, ptr %50, i32 0, i32 3
  store i64 0, ptr %51, align 8, !tbaa !35
  br label %52

52:                                               ; preds = %47, %9
  ret i32 0
}

; Function Attrs: nounwind uwtable
define i32 @H5S__extent_copy_real(ptr noundef %0, ptr noundef %1, i1 noundef zeroext %2) #0 {
  %4 = alloca ptr, align 8
  %5 = alloca ptr, align 8
  %6 = alloca i8, align 1
  %7 = alloca i32, align 4
  %8 = alloca i32, align 4
  %9 = alloca i8, align 1
  store ptr %0, ptr %4, align 8, !tbaa !29
  store ptr %1, ptr %5, align 8, !tbaa !29
  %10 = zext i1 %2 to i8
  store i8 %10, ptr %6, align 1, !tbaa !7
  call void @llvm.lifetime.start.p0(i64 4, ptr %7) #7
  call void @llvm.lifetime.start.p0(i64 4, ptr %8) #7
  store i32 0, ptr %8, align 4, !tbaa !3
  call void @llvm.lifetime.start.p0(i64 1, ptr %9) #7
  store i8 0, ptr %9, align 1, !tbaa !7
  %11 = load i8, ptr @H5S_init_g, align 1, !tbaa !7, !range !9, !noundef !10
  %12 = trunc i8 %11 to i1
  br i1 %12, label %17, label %13

13:                                               ; preds = %3
  %14 = load i8, ptr @H5_libterm_g, align 1, !tbaa !7, !range !9, !noundef !10
  %15 = trunc i8 %14 to i1
  %16 = xor i1 %15, true
  br label %17

17:                                               ; preds = %13, %3
  %18 = phi i1 [ true, %3 ], [ %16, %13 ]
  %19 = xor i1 %18, true
  %20 = xor i1 %19, true
  %21 = zext i1 %20 to i32
  %22 = sext i32 %21 to i64
  %23 = call i64 @llvm.expect.i64(i64 %22, i64 1)
  %24 = icmp ne i64 %23, 0
  br i1 %24, label %25, label %207

25:                                               ; preds = %17
  %26 = load ptr, ptr %4, align 8, !tbaa !29
  %27 = call i32 @H5S__extent_release(ptr noundef %26)
  %28 = icmp slt i32 %27, 0
  br i1 %28, label %29, label %48

29:                                               ; preds = %25
  br label %30

30:                                               ; preds = %29
  br label %31

31:                                               ; preds = %30
  br label %32

32:                                               ; preds = %31
  %33 = load i64, ptr @H5E_DATASPACE_g, align 8, !tbaa !11
  %34 = load i64, ptr @H5E_CANTRELEASE_g, align 8, !tbaa !11
  %35 = call i32 (ptr, ptr, i32, i64, i64, ptr, ...) @H5E_printf_stack(ptr noundef @.str.3, ptr noundef @__func__.H5S__extent_copy_real, i32 noundef 616, i64 noundef %33, i64 noundef %34, ptr noundef @.str.17)
  br label %36

36:                                               ; preds = %32
  br label %37

37:                                               ; preds = %36
  store i8 1, ptr %9, align 1, !tbaa !7
  %38 = load i8, ptr %9, align 1, !tbaa !7, !range !9, !noundef !10
  %39 = trunc i8 %38 to i1
  %40 = zext i1 %39 to i8
  store i8 %40, ptr %9, align 1, !tbaa !7
  br label %41

41:                                               ; preds = %37
  br label %42

42:                                               ; preds = %41
  br label %43

43:                                               ; preds = %42
  store i32 -1, ptr %8, align 4, !tbaa !3
  br label %190

44:                                               ; No predecessors!
  br label %45

45:                                               ; preds = %44
  br label %46

46:                                               ; preds = %45
  br label %47

47:                                               ; preds = %46
  br label %48

48:                                               ; preds = %47, %25
  %49 = load ptr, ptr %5, align 8, !tbaa !29
  %50 = getelementptr inbounds nuw %struct.H5S_extent_t, ptr %49, i32 0, i32 1
  %51 = load i32, ptr %50, align 8, !tbaa !31
  %52 = load ptr, ptr %4, align 8, !tbaa !29
  %53 = getelementptr inbounds nuw %struct.H5S_extent_t, ptr %52, i32 0, i32 1
  store i32 %51, ptr %53, align 8, !tbaa !31
  %54 = load ptr, ptr %5, align 8, !tbaa !29
  %55 = getelementptr inbounds nuw %struct.H5S_extent_t, ptr %54, i32 0, i32 2
  %56 = load i32, ptr %55, align 4, !tbaa !39
  %57 = load ptr, ptr %4, align 8, !tbaa !29
  %58 = getelementptr inbounds nuw %struct.H5S_extent_t, ptr %57, i32 0, i32 2
  store i32 %56, ptr %58, align 4, !tbaa !39
  %59 = load ptr, ptr %5, align 8, !tbaa !29
  %60 = getelementptr inbounds nuw %struct.H5S_extent_t, ptr %59, i32 0, i32 3
  %61 = load i64, ptr %60, align 8, !tbaa !35
  %62 = load ptr, ptr %4, align 8, !tbaa !29
  %63 = getelementptr inbounds nuw %struct.H5S_extent_t, ptr %62, i32 0, i32 3
  store i64 %61, ptr %63, align 8, !tbaa !35
  %64 = load ptr, ptr %5, align 8, !tbaa !29
  %65 = getelementptr inbounds nuw %struct.H5S_extent_t, ptr %64, i32 0, i32 4
  %66 = load i32, ptr %65, align 8, !tbaa !34
  %67 = load ptr, ptr %4, align 8, !tbaa !29
  %68 = getelementptr inbounds nuw %struct.H5S_extent_t, ptr %67, i32 0, i32 4
  store i32 %66, ptr %68, align 8, !tbaa !34
  %69 = load ptr, ptr %5, align 8, !tbaa !29
  %70 = getelementptr inbounds nuw %struct.H5S_extent_t, ptr %69, i32 0, i32 1
  %71 = load i32, ptr %70, align 8, !tbaa !31
  switch i32 %71, label %162 [
    i32 2, label %72
    i32 0, label %72
    i32 1, label %77
    i32 -1, label %161
  ]

72:                                               ; preds = %48, %48
  %73 = load ptr, ptr %4, align 8, !tbaa !29
  %74 = getelementptr inbounds nuw %struct.H5S_extent_t, ptr %73, i32 0, i32 5
  store ptr null, ptr %74, align 8, !tbaa !32
  %75 = load ptr, ptr %4, align 8, !tbaa !29
  %76 = getelementptr inbounds nuw %struct.H5S_extent_t, ptr %75, i32 0, i32 6
  store ptr null, ptr %76, align 8, !tbaa !33
  br label %163

77:                                               ; preds = %48
  %78 = load ptr, ptr %5, align 8, !tbaa !29
  %79 = getelementptr inbounds nuw %struct.H5S_extent_t, ptr %78, i32 0, i32 5
  %80 = load ptr, ptr %79, align 8, !tbaa !32
  %81 = icmp ne ptr %80, null
  br i1 %81, label %82, label %114

82:                                               ; preds = %77
  %83 = load ptr, ptr %5, align 8, !tbaa !29
  %84 = getelementptr inbounds nuw %struct.H5S_extent_t, ptr %83, i32 0, i32 4
  %85 = load i32, ptr %84, align 8, !tbaa !34
  %86 = zext i32 %85 to i64
  %87 = call noalias ptr @H5FL_arr_malloc(ptr noundef @H5_hsize_t_arr_free_list, i64 noundef %86)
  %88 = load ptr, ptr %4, align 8, !tbaa !29
  %89 = getelementptr inbounds nuw %struct.H5S_extent_t, ptr %88, i32 0, i32 5
  store ptr %87, ptr %89, align 8, !tbaa !32
  store i32 0, ptr %7, align 4, !tbaa !3
  br label %90

90:                                               ; preds = %110, %82
  %91 = load i32, ptr %7, align 4, !tbaa !3
  %92 = load ptr, ptr %5, align 8, !tbaa !29
  %93 = getelementptr inbounds nuw %struct.H5S_extent_t, ptr %92, i32 0, i32 4
  %94 = load i32, ptr %93, align 8, !tbaa !34
  %95 = icmp ult i32 %91, %94
  br i1 %95, label %96, label %113

96:                                               ; preds = %90
  %97 = load ptr, ptr %5, align 8, !tbaa !29
  %98 = getelementptr inbounds nuw %struct.H5S_extent_t, ptr %97, i32 0, i32 5
  %99 = load ptr, ptr %98, align 8, !tbaa !32
  %100 = load i32, ptr %7, align 4, !tbaa !3
  %101 = zext i32 %100 to i64
  %102 = getelementptr inbounds nuw i64, ptr %99, i64 %101
  %103 = load i64, ptr %102, align 8, !tbaa !11
  %104 = load ptr, ptr %4, align 8, !tbaa !29
  %105 = getelementptr inbounds nuw %struct.H5S_extent_t, ptr %104, i32 0, i32 5
  %106 = load ptr, ptr %105, align 8, !tbaa !32
  %107 = load i32, ptr %7, align 4, !tbaa !3
  %108 = zext i32 %107 to i64
  %109 = getelementptr inbounds nuw i64, ptr %106, i64 %108
  store i64 %103, ptr %109, align 8, !tbaa !11
  br label %110

110:                                              ; preds = %96
  %111 = load i32, ptr %7, align 4, !tbaa !3
  %112 = add i32 %111, 1
  store i32 %112, ptr %7, align 4, !tbaa !3
  br label %90, !llvm.loop !40

113:                                              ; preds = %90
  br label %117

114:                                              ; preds = %77
  %115 = load ptr, ptr %4, align 8, !tbaa !29
  %116 = getelementptr inbounds nuw %struct.H5S_extent_t, ptr %115, i32 0, i32 5
  store ptr null, ptr %116, align 8, !tbaa !32
  br label %117

117:                                              ; preds = %114, %113
  %118 = load i8, ptr %6, align 1, !tbaa !7, !range !9, !noundef !10
  %119 = trunc i8 %118 to i1
  br i1 %119, label %120, label %157

120:                                              ; preds = %117
  %121 = load ptr, ptr %5, align 8, !tbaa !29
  %122 = getelementptr inbounds nuw %struct.H5S_extent_t, ptr %121, i32 0, i32 6
  %123 = load ptr, ptr %122, align 8, !tbaa !33
  %124 = icmp ne ptr %123, null
  br i1 %124, label %125, label %157

125:                                              ; preds = %120
  %126 = load ptr, ptr %5, align 8, !tbaa !29
  %127 = getelementptr inbounds nuw %struct.H5S_extent_t, ptr %126, i32 0, i32 4
  %128 = load i32, ptr %127, align 8, !tbaa !34
  %129 = zext i32 %128 to i64
  %130 = call noalias ptr @H5FL_arr_malloc(ptr noundef @H5_hsize_t_arr_free_list, i64 noundef %129)
  %131 = load ptr, ptr %4, align 8, !tbaa !29
  %132 = getelementptr inbounds nuw %struct.H5S_extent_t, ptr %131, i32 0, i32 6
  store ptr %130, ptr %132, align 8, !tbaa !33
  store i32 0, ptr %7, align 4, !tbaa !3
  br label %133

133:                                              ; preds = %153, %125
  %134 = load i32, ptr %7, align 4, !tbaa !3
  %135 = load ptr, ptr %5, align 8, !tbaa !29
  %136 = getelementptr inbounds nuw %struct.H5S_extent_t, ptr %135, i32 0, i32 4
  %137 = load i32, ptr %136, align 8, !tbaa !34
  %138 = icmp ult i32 %134, %137
  br i1 %138, label %139, label %156

139:                                              ; preds = %133
  %140 = load ptr, ptr %5, align 8, !tbaa !29
  %141 = getelementptr inbounds nuw %struct.H5S_extent_t, ptr %140, i32 0, i32 6
  %142 = load ptr, ptr %141, align 8, !tbaa !33
  %143 = load i32, ptr %7, align 4, !tbaa !3
  %144 = zext i32 %143 to i64
  %145 = getelementptr inbounds nuw i64, ptr %142, i64 %144
  %146 = load i64, ptr %145, align 8, !tbaa !11
  %147 = load ptr, ptr %4, align 8, !tbaa !29
  %148 = getelementptr inbounds nuw %struct.H5S_extent_t, ptr %147, i32 0, i32 6
  %149 = load ptr, ptr %148, align 8, !tbaa !33
  %150 = load i32, ptr %7, align 4, !tbaa !3
  %151 = zext i32 %150 to i64
  %152 = getelementptr inbounds nuw i64, ptr %149, i64 %151
  store i64 %146, ptr %152, align 8, !tbaa !11
  br label %153

153:                                              ; preds = %139
  %154 = load i32, ptr %7, align 4, !tbaa !3
  %155 = add i32 %154, 1
  store i32 %155, ptr %7, align 4, !tbaa !3
  br label %133, !llvm.loop !42

156:                                              ; preds = %133
  br label %160

157:                                              ; preds = %120, %117
  %158 = load ptr, ptr %4, align 8, !tbaa !29
  %159 = getelementptr inbounds nuw %struct.H5S_extent_t, ptr %158, i32 0, i32 6
  store ptr null, ptr %159, align 8, !tbaa !33
  br label %160

160:                                              ; preds = %157, %156
  br label %163

161:                                              ; preds = %48
  br label %162

162:                                              ; preds = %48, %161
  br label %163

163:                                              ; preds = %162, %160, %72
  %164 = load ptr, ptr %4, align 8, !tbaa !29
  %165 = getelementptr inbounds nuw %struct.H5S_extent_t, ptr %164, i32 0, i32 0
  %166 = load ptr, ptr %5, align 8, !tbaa !29
  %167 = getelementptr inbounds nuw %struct.H5S_extent_t, ptr %166, i32 0, i32 0
  %168 = call i32 @H5O_set_shared(ptr noundef %165, ptr noundef %167)
  %169 = icmp slt i32 %168, 0
  br i1 %169, label %170, label %189

170:                                              ; preds = %163
  br label %171

171:                                              ; preds = %170
  br label %172

172:                                              ; preds = %171
  br label %173

173:                                              ; preds = %172
  %174 = load i64, ptr @H5E_DATASPACE_g, align 8, !tbaa !11
  %175 = load i64, ptr @H5E_CANTCOPY_g, align 8, !tbaa !11
  %176 = call i32 (ptr, ptr, i32, i64, i64, ptr, ...) @H5E_printf_stack(ptr noundef @.str.3, ptr noundef @__func__.H5S__extent_copy_real, i32 noundef 656, i64 noundef %174, i64 noundef %175, ptr noundef @.str.23)
  br label %177

177:                                              ; preds = %173
  br label %178

178:                                              ; preds = %177
  store i8 1, ptr %9, align 1, !tbaa !7
  %179 = load i8, ptr %9, align 1, !tbaa !7, !range !9, !noundef !10
  %180 = trunc i8 %179 to i1
  %181 = zext i1 %180 to i8
  store i8 %181, ptr %9, align 1, !tbaa !7
  br label %182

182:                                              ; preds = %178
  br label %183

183:                                              ; preds = %182
  br label %184

184:                                              ; preds = %183
  store i32 -1, ptr %8, align 4, !tbaa !3
  br label %190

185:                                              ; No predecessors!
  br label %186

186:                                              ; preds = %185
  br label %187

187:                                              ; preds = %186
  br label %188

188:                                              ; preds = %187
  br label %189

189:                                              ; preds = %188, %163
  br label %190

190:                                              ; preds = %189, %184, %43
  %191 = load i32, ptr %8, align 4, !tbaa !3
  %192 = icmp slt i32 %191, 0
  br i1 %192, label %193, label %206

193:                                              ; preds = %190
  %194 = load ptr, ptr %4, align 8, !tbaa !29
  %195 = getelementptr inbounds nuw %struct.H5S_extent_t, ptr %194, i32 0, i32 5
  %196 = load ptr, ptr %195, align 8, !tbaa !32
  %197 = icmp ne ptr %196, null
  br i1 %197, label %198, label %205

198:                                              ; preds = %193
  %199 = load ptr, ptr %4, align 8, !tbaa !29
  %200 = getelementptr inbounds nuw %struct.H5S_extent_t, ptr %199, i32 0, i32 5
  %201 = load ptr, ptr %200, align 8, !tbaa !32
  %202 = call ptr @H5FL_arr_free(ptr noundef @H5_hsize_t_arr_free_list, ptr noundef %201)
  %203 = load ptr, ptr %4, align 8, !tbaa !29
  %204 = getelementptr inbounds nuw %struct.H5S_extent_t, ptr %203, i32 0, i32 5
  store ptr %202, ptr %204, align 8, !tbaa !32
  br label %205

205:                                              ; preds = %198, %193
  br label %206

206:                                              ; preds = %205, %190
  br label %207

207:                                              ; preds = %206, %17
  %208 = load i32, ptr %8, align 4, !tbaa !3
  call void @llvm.lifetime.end.p0(i64 1, ptr %9) #7
  call void @llvm.lifetime.end.p0(i64 4, ptr %8) #7
  call void @llvm.lifetime.end.p0(i64 4, ptr %7) #7
  ret i32 %208
}