; Function Attrs: nounwind uwtable
define range(i32 -1, 1) i32 @H5S__extent_copy_real(ptr noundef %0, ptr noundef %1, i1 noundef zeroext %2) local_unnamed_addr #0 {
  %4 = load i8, ptr @H5S_init_g, align 1, !tbaa !3, !range !7, !noundef !8
  %5 = trunc nuw i8 %4 to i1
  %6 = load i8, ptr @H5_libterm_g, align 1, !range !7
  %7 = trunc nuw i8 %6 to i1
  %8 = xor i1 %7, true
  %9 = select i1 %5, i1 true, i1 %8
  br i1 %9, label %10, label %.critedge, !prof !9

10:                                               ; preds = %3
  %11 = getelementptr inbounds nuw i8, ptr %0, i64 40
  %12 = load i32, ptr %11, align 8, !tbaa !26
  %13 = icmp eq i32 %12, 1
  br i1 %13, label %14, label %H5S__extent_release.exit

14:                                               ; preds = %10
  %15 = getelementptr inbounds nuw i8, ptr %0, i64 64
  %16 = load ptr, ptr %15, align 8, !tbaa !27
  %.not.i = icmp eq ptr %16, null
  br i1 %.not.i, label %19, label %17

17:                                               ; preds = %14
  %18 = tail call ptr @H5FL_arr_free(ptr noundef nonnull @H5_hsize_t_arr_free_list, ptr noundef nonnull %16) #10
  store ptr %18, ptr %15, align 8, !tbaa !27
  br label %19

19:                                               ; preds = %17, %14
  %20 = getelementptr inbounds nuw i8, ptr %0, i64 72
  %21 = load ptr, ptr %20, align 8, !tbaa !28
  %.not10.i = icmp eq ptr %21, null
  br i1 %.not10.i, label %H5S__extent_release.exit, label %22

22:                                               ; preds = %19
  %23 = tail call ptr @H5FL_arr_free(ptr noundef nonnull @H5_hsize_t_arr_free_list, ptr noundef nonnull %21) #10
  store ptr %23, ptr %20, align 8, !tbaa !28
  br label %H5S__extent_release.exit

H5S__extent_release.exit:                         ; preds = %10, %19, %22
  %24 = getelementptr inbounds nuw i8, ptr %0, i64 56
  store i32 0, ptr %24, align 8, !tbaa !29
  %25 = getelementptr inbounds nuw i8, ptr %0, i64 48
  store i64 0, ptr %25, align 8, !tbaa !30
  %26 = getelementptr inbounds nuw i8, ptr %1, i64 40
  %27 = load i32, ptr %26, align 8, !tbaa !26
  store i32 %27, ptr %11, align 8, !tbaa !26
  %28 = getelementptr inbounds nuw i8, ptr %1, i64 44
  %29 = load i32, ptr %28, align 4, !tbaa !38
  %30 = getelementptr inbounds nuw i8, ptr %0, i64 44
  store i32 %29, ptr %30, align 4, !tbaa !38
  %31 = getelementptr inbounds nuw i8, ptr %1, i64 48
  %32 = load i64, ptr %31, align 8, !tbaa !30
  store i64 %32, ptr %25, align 8, !tbaa !30
  %33 = getelementptr inbounds nuw i8, ptr %1, i64 56
  %34 = load i32, ptr %33, align 8, !tbaa !29
  store i32 %34, ptr %24, align 8, !tbaa !29
  switch i32 %27, label %.loopexit [
    i32 2, label %35
    i32 0, label %35
    i32 1, label %37
  ]

35:                                               ; preds = %H5S__extent_release.exit, %H5S__extent_release.exit
  %36 = getelementptr inbounds nuw i8, ptr %0, i64 64
  tail call void @llvm.memset.p0.i64(ptr noundef nonnull align 8 dereferenceable(16) %36, i8 0, i64 16, i1 false)
  br label %.loopexit

37:                                               ; preds = %H5S__extent_release.exit
  %38 = getelementptr inbounds nuw i8, ptr %1, i64 64
  %39 = load ptr, ptr %38, align 8, !tbaa !27
  %.not = icmp eq ptr %39, null
  br i1 %.not, label %50, label %40

40:                                               ; preds = %37
  %41 = zext i32 %34 to i64
  %42 = tail call noalias ptr @H5FL_arr_malloc(ptr noundef nonnull @H5_hsize_t_arr_free_list, i64 noundef %41) #10
  %43 = getelementptr inbounds nuw i8, ptr %0, i64 64
  store ptr %42, ptr %43, align 8, !tbaa !27
  %44 = load i32, ptr %33, align 8, !tbaa !29
  %.not52 = icmp eq i32 %44, 0
  br i1 %.not52, label %.loopexit48, label %.lr.ph

.lr.ph:                                           ; preds = %40
  %45 = load ptr, ptr %38, align 8, !tbaa !27
  %wide.trip.count = zext i32 %44 to i64
  br label %46

46:                                               ; preds = %.lr.ph, %46
  %indvars.iv = phi i64 [ 0, %.lr.ph ], [ %indvars.iv.next, %46 ]
  %47 = getelementptr inbounds nuw i64, ptr %45, i64 %indvars.iv
  %48 = load i64, ptr %47, align 8, !tbaa !10
  %49 = getelementptr inbounds nuw i64, ptr %42, i64 %indvars.iv
  store i64 %48, ptr %49, align 8, !tbaa !10
  %indvars.iv.next = add nuw nsw i64 %indvars.iv, 1
  %exitcond.not = icmp eq i64 %indvars.iv.next, %wide.trip.count
  br i1 %exitcond.not, label %.loopexit48, label %46, !llvm.loop !39

50:                                               ; preds = %37
  %51 = getelementptr inbounds nuw i8, ptr %0, i64 64
  store ptr null, ptr %51, align 8, !tbaa !27
  br label %.loopexit48

.loopexit48:                                      ; preds = %46, %40, %50
  %52 = phi i32 [ 0, %40 ], [ %34, %50 ], [ %44, %46 ]
  br i1 %2, label %53, label %66

53:                                               ; preds = %.loopexit48
  %54 = getelementptr inbounds nuw i8, ptr %1, i64 72
  %55 = load ptr, ptr %54, align 8, !tbaa !28
  %.not46 = icmp eq ptr %55, null
  br i1 %.not46, label %66, label %56

56:                                               ; preds = %53
  %57 = zext i32 %52 to i64
  %58 = tail call noalias ptr @H5FL_arr_malloc(ptr noundef nonnull @H5_hsize_t_arr_free_list, i64 noundef %57) #10
  %59 = getelementptr inbounds nuw i8, ptr %0, i64 72
  store ptr %58, ptr %59, align 8, !tbaa !28
  %60 = load i32, ptr %33, align 8, !tbaa !29
  %.not53 = icmp eq i32 %60, 0
  br i1 %.not53, label %.loopexit, label %.lr.ph51

.lr.ph51:                                         ; preds = %56
  %61 = load ptr, ptr %54, align 8, !tbaa !28
  %wide.trip.count58 = zext i32 %60 to i64
  br label %62

62:                                               ; preds = %.lr.ph51, %62
  %indvars.iv55 = phi i64 [ 0, %.lr.ph51 ], [ %indvars.iv.next56, %62 ]
  %63 = getelementptr inbounds nuw i64, ptr %61, i64 %indvars.iv55
  %64 = load i64, ptr %63, align 8, !tbaa !10
  %65 = getelementptr inbounds nuw i64, ptr %58, i64 %indvars.iv55
  store i64 %64, ptr %65, align 8, !tbaa !10
  %indvars.iv.next56 = add nuw nsw i64 %indvars.iv55, 1
  %exitcond59.not = icmp eq i64 %indvars.iv.next56, %wide.trip.count58
  br i1 %exitcond59.not, label %.loopexit, label %62, !llvm.loop !41

66:                                               ; preds = %53, %.loopexit48
  %67 = getelementptr inbounds nuw i8, ptr %0, i64 72
  store ptr null, ptr %67, align 8, !tbaa !28
  br label %.loopexit

.loopexit:                                        ; preds = %62, %56, %H5S__extent_release.exit, %66, %35
  %68 = tail call i32 @H5O_set_shared(ptr noundef %0, ptr noundef nonnull %1) #10
  %69 = icmp slt i32 %68, 0
  br i1 %69, label %70, label %.critedge

70:                                               ; preds = %.loopexit
  %71 = load i64, ptr @H5E_DATASPACE_g, align 8, !tbaa !10
  %72 = load i64, ptr @H5E_CANTCOPY_g, align 8, !tbaa !10
  %73 = tail call i32 (ptr, ptr, i32, i64, i64, ptr, ...) @H5E_printf_stack(ptr noundef nonnull @.str.3, ptr noundef nonnull @__func__.H5S__extent_copy_real, i32 noundef 656, i64 noundef %71, i64 noundef %72, ptr noundef nonnull @.str.23) #10
  %74 = getelementptr inbounds nuw i8, ptr %0, i64 64
  %75 = load ptr, ptr %74, align 8, !tbaa !27
  %.not47 = icmp eq ptr %75, null
  br i1 %.not47, label %.critedge, label %76

76:                                               ; preds = %70
  %77 = tail call ptr @H5FL_arr_free(ptr noundef nonnull @H5_hsize_t_arr_free_list, ptr noundef nonnull %75) #10
  store ptr %77, ptr %74, align 8, !tbaa !27
  br label %.critedge

.critedge:                                        ; preds = %.loopexit, %76, %70, %3
  %.0 = phi i32 [ -1, %76 ], [ -1, %70 ], [ 0, %3 ], [ 0, %.loopexit ]
  ret i32 %.0
}